target datalayout = "e-m:e-p270:32:32-p271:32:32-p272:64:64-i64:64-i128:128-f80:128-n8:16:32:64-S128"
target triple = "x86_64-pc-linux-gnu"

%struct.array_task_state_cached_t = type { i32, i32, i32 }

; Function Attrs: nounwind uwtable
define internal zeroext i1 @_array_task_match(ptr noundef %0, ptr noundef %1, i64 noundef %2, ptr noundef %3) #0 {
  %5 = alloca i1, align 1
  %6 = alloca ptr, align 8
  %7 = alloca ptr, align 8
  %8 = alloca i64, align 8
  %9 = alloca ptr, align 8
  %10 = alloca ptr, align 8
  %11 = alloca ptr, align 8
  %12 = alloca ptr, align 8
  %13 = alloca i32, align 4
  store ptr %0, ptr %6, align 8
  store ptr %1, ptr %7, align 8
  store i64 %2, ptr %8, align 8
  store ptr %3, ptr %9, align 8
  call void @llvm.lifetime.start.p0(i64 8, ptr %10) #8
  %14 = load ptr, ptr %6, align 8
  store ptr %14, ptr %10, align 8
  call void @llvm.lifetime.start.p0(i64 8, ptr %11) #8
  %15 = load ptr, ptr %9, align 8
  store ptr %15, ptr %11, align 8
  call void @llvm.lifetime.start.p0(i64 8, ptr %12) #8
  %16 = load ptr, ptr %7, align 8
  store ptr %16, ptr %12, align 8
  %17 = load ptr, ptr %12, align 8
  %18 = getelementptr inbounds nuw %struct.array_task_state_cached_t, ptr %17, i32 0, i32 2
  %19 = load i32, ptr %18, align 4
  %20 = icmp ult i32 %19, -2
  br i1 %20, label %21, label %30

21:                                               ; preds = %4
  %22 = load ptr, ptr %10, align 8
  %23 = getelementptr inbounds nuw %struct.array_task_state_cached_t, ptr %22, i32 0, i32 2
  %24 = load i32, ptr %23, align 4
  %25 = load ptr, ptr %12, align 8
  %26 = getelementptr inbounds nuw %struct.array_task_state_cached_t, ptr %25, i32 0, i32 2
  %27 = load i32, ptr %26, align 4
  %28 = icmp ne i32 %24, %27
  br i1 %28, label %29, label %30

29:                                               ; preds = %21
  store i1 false, ptr %5, align 1
  store i32 1, ptr %13, align 4
  br label %38

30:                                               ; preds = %21, %4
  %31 = load ptr, ptr %10, align 8
  %32 = getelementptr inbounds nuw %struct.array_task_state_cached_t, ptr %31, i32 0, i32 1
  %33 = load i32, ptr %32, align 4
  %34 = load ptr, ptr %12, align 8
  %35 = getelementptr inbounds nuw %struct.array_task_state_cached_t, ptr %34, i32 0, i32 1
  %36 = load i32, ptr %35, align 4
  %37 = icmp eq i32 %33, %36
  store i1 %37, ptr %5, align 1
  store i32 1, ptr %13, align 4
  br label %38

38:                                               ; preds = %30, %29
  call void @llvm.lifetime.end.p0(i64 8, ptr %12) #8
  call void @llvm.lifetime.end.p0(i64 8, ptr %11) #8
  call void @llvm.lifetime.end.p0(i64 8, ptr %10) #8
  %39 = load i1, ptr %5, align 1
  ret i1 %39
}