; Function Attrs: mustprogress nofree norecurse nosync nounwind willreturn memory(argmem: read) uwtable
define internal zeroext i1 @_array_task_match(ptr noundef readonly captures(none) %0, ptr noundef readonly captures(none) %1, i64 %2, ptr readnone captures(none) %3) #7 {
  %5 = getelementptr inbounds nuw i8, ptr %1, i64 8
  %6 = load i32, ptr %5, align 4
  %7 = icmp ult i32 %6, -2
  br i1 %7, label %8, label %11

8:                                                ; preds = %4
  %9 = getelementptr inbounds nuw i8, ptr %0, i64 8
  %10 = load i32, ptr %9, align 4
  %.not = icmp eq i32 %10, %6
  br i1 %.not, label %11, label %17

11:                                               ; preds = %8, %4
  %12 = getelementptr inbounds nuw i8, ptr %0, i64 4
  %13 = load i32, ptr %12, align 4
  %14 = getelementptr inbounds nuw i8, ptr %1, i64 4
  %15 = load i32, ptr %14, align 4
  %16 = icmp eq i32 %13, %15
  br label %17

17:                                               ; preds = %8, %11
  %.0 = phi i1 [ %16, %11 ], [ false, %8 ]
  ret i1 %.0
}